target datalayout = "e-m:e-p270:32:32-p271:32:32-p272:64:64-i64:64-i128:128-f80:128-n8:16:32:64-S128"
target triple = "x86_64-pc-linux-gnu"

%struct.ComplexMatrix2 = type { [2 x [2 x double]], [2 x [2 x double]] }
%struct.Qureg = type { i32, i32, i32, i64, i64, i32, i32, %struct.ComplexArray, %struct.ComplexArray, %struct.ComplexArray, ptr, ptr, ptr, ptr, ptr, ptr }
%struct.ComplexArray = type { ptr, ptr }

@constinit = private constant [2 x [2 x double]] zeroinitializer, align 8

; Function Attrs: nounwind uwtable
define i64 @getQubitBitMask(ptr noundef %0, i32 noundef %1) #0 {
  %3 = alloca ptr, align 8
  %4 = alloca i32, align 4
  %5 = alloca i64, align 8
  %6 = alloca i32, align 4
  store ptr %0, ptr %3, align 8, !tbaa !4
  store i32 %1, ptr %4, align 4, !tbaa !9
  call void @llvm.lifetime.start.p0(i64 8, ptr %5) #8
  store i64 0, ptr %5, align 8, !tbaa !11
  call void @llvm.lifetime.start.p0(i64 4, ptr %6) #8
  store i32 0, ptr %6, align 4, !tbaa !9
  br label %7

7:                                                ; preds = %22, %2
  %8 = load i32, ptr %6, align 4, !tbaa !9
  %9 = load i32, ptr %4, align 4, !tbaa !9
  %10 = icmp slt i32 %8, %9
  br i1 %10, label %12, label %11

11:                                               ; preds = %7
  call void @llvm.lifetime.end.p0(i64 4, ptr %6) #8
  br label %25

12:                                               ; preds = %7
  %13 = load i64, ptr %5, align 8, !tbaa !11
  %14 = load ptr, ptr %3, align 8, !tbaa !4
  %15 = load i32, ptr %6, align 4, !tbaa !9
  %16 = sext i32 %15 to i64
  %17 = getelementptr inbounds i32, ptr %14, i64 %16
  %18 = load i32, ptr %17, align 4, !tbaa !9
  %19 = zext i32 %18 to i64
  %20 = shl i64 1, %19
  %21 = or i64 %13, %20
  store i64 %21, ptr %5, align 8, !tbaa !11
  br label %22

22:                                               ; preds = %12
  %23 = load i32, ptr %6, align 4, !tbaa !9
  %24 = add nsw i32 %23, 1
  store i32 %24, ptr %6, align 4, !tbaa !9
  br label %7

25:                                               ; preds = %11
  %26 = load i64, ptr %5, align 8, !tbaa !11
  call void @llvm.lifetime.end.p0(i64 8, ptr %5) #8
  ret i64 %26
}

; Function Attrs: nounwind uwtable
define void @statevec_multiControlledMultiRotatePauli(ptr noundef byval(%struct.Qureg) align 8 %0, i64 noundef %1, ptr noundef %2, ptr noundef %3, i32 noundef %4, double noundef %5, i32 noundef %6) #0 {
  %8 = alloca i64, align 8
  %9 = alloca ptr, align 8
  %10 = alloca ptr, align 8
  %11 = alloca i32, align 4
  %12 = alloca double, align 8
  %13 = alloca i32, align 4
  %14 = alloca double, align 8
  %15 = alloca double, align 8
  %16 = alloca %struct.ComplexMatrix2, align 8
  %17 = alloca %struct.ComplexMatrix2, align 8
  %18 = alloca i64, align 8
  %19 = alloca i64, align 8
  %20 = alloca i32, align 4
  %21 = alloca i32, align 4
  store i64 %1, ptr %8, align 8, !tbaa !11
  store ptr %2, ptr %9, align 8, !tbaa !4
  store ptr %3, ptr %10, align 8, !tbaa !52
  store i32 %4, ptr %11, align 4, !tbaa !9
  store double %5, ptr %12, align 8, !tbaa !18
  store i32 %6, ptr %13, align 4, !tbaa !9
  call void @llvm.lifetime.start.p0(i64 8, ptr %14) #8
  %22 = call double @sqrt(double noundef 2.000000e+00) #8, !tbaa !9
  %23 = fdiv double 1.000000e+00, %22
  store double %23, ptr %14, align 8, !tbaa !18
  call void @llvm.lifetime.start.p0(i64 8, ptr %15) #8
  %24 = load i32, ptr %13, align 4, !tbaa !9
  %25 = icmp ne i32 %24, 0
  %26 = select i1 %25, i32 1, i32 -1
  %27 = sitofp i32 %26 to double
  store double %27, ptr %15, align 8, !tbaa !18
  call void @llvm.lifetime.start.p0(i64 64, ptr %16) #8
  %28 = getelementptr inbounds nuw %struct.ComplexMatrix2, ptr %16, i32 0, i32 0
  %29 = load double, ptr %14, align 8, !tbaa !18
  store double %29, ptr %28, align 8, !tbaa !18
  %30 = getelementptr inbounds double, ptr %28, i64 1
  store double 0.000000e+00, ptr %30, align 8, !tbaa !18
  %31 = getelementptr inbounds [2 x double], ptr %28, i64 1
  store double 0.000000e+00, ptr %31, align 8, !tbaa !18
  %32 = getelementptr inbounds double, ptr %31, i64 1
  %33 = load double, ptr %14, align 8, !tbaa !18
  store double %33, ptr %32, align 8, !tbaa !18
  %34 = getelementptr inbounds nuw %struct.ComplexMatrix2, ptr %16, i32 0, i32 1
  store double 0.000000e+00, ptr %34, align 8, !tbaa !18
  %35 = getelementptr inbounds double, ptr %34, i64 1
  %36 = load double, ptr %15, align 8, !tbaa !18
  %37 = load double, ptr %14, align 8, !tbaa !18
  %38 = fmul double %36, %37
  store double %38, ptr %35, align 8, !tbaa !18
  %39 = getelementptr inbounds [2 x double], ptr %34, i64 1
  %40 = load double, ptr %15, align 8, !tbaa !18
  %41 = load double, ptr %14, align 8, !tbaa !18
  %42 = fmul double %40, %41
  store double %42, ptr %39, align 8, !tbaa !18
  %43 = getelementptr inbounds double, ptr %39, i64 1
  store double 0.000000e+00, ptr %43, align 8, !tbaa !18
  call void @llvm.lifetime.start.p0(i64 64, ptr %17) #8
  %44 = getelementptr inbounds nuw %struct.ComplexMatrix2, ptr %17, i32 0, i32 0
  %45 = load double, ptr %14, align 8, !tbaa !18
  store double %45, ptr %44, align 8, !tbaa !18
  %46 = getelementptr inbounds double, ptr %44, i64 1
  %47 = load double, ptr %14, align 8, !tbaa !18
  store double %47, ptr %46, align 8, !tbaa !18
  %48 = getelementptr inbounds [2 x double], ptr %44, i64 1
  %49 = load double, ptr %14, align 8, !tbaa !18
  %50 = fneg double %49
  store double %50, ptr %48, align 8, !tbaa !18
  %51 = getelementptr inbounds double, ptr %48, i64 1
  %52 = load double, ptr %14, align 8, !tbaa !18
  store double %52, ptr %51, align 8, !tbaa !18
  %53 = getelementptr inbounds nuw %struct.ComplexMatrix2, ptr %17, i32 0, i32 1
  call void @llvm.memset.p0.i64(ptr align 8 %53, i8 0, i64 32, i1 false)
  call void @llvm.memcpy.p0.p0.i64(ptr align 8 %53, ptr align 8 @constinit, i64 32, i1 false), !tbaa.struct !53
  call void @llvm.lifetime.start.p0(i64 8, ptr %18) #8
  store i64 0, ptr %18, align 8, !tbaa !11
  call void @llvm.lifetime.start.p0(i64 8, ptr %19) #8
  %54 = load ptr, ptr %9, align 8, !tbaa !4
  %55 = load i32, ptr %11, align 4, !tbaa !9
  %56 = call i64 @getQubitBitMask(ptr noundef %54, i32 noundef %55)
  store i64 %56, ptr %19, align 8, !tbaa !11
  call void @llvm.lifetime.start.p0(i64 4, ptr %20) #8
  store i32 0, ptr %20, align 4, !tbaa !9
  br label %57

57:                                               ; preds = %110, %7
  %58 = load i32, ptr %20, align 4, !tbaa !9
  %59 = load i32, ptr %11, align 4, !tbaa !9
  %60 = icmp slt i32 %58, %59
  br i1 %60, label %62, label %61

61:                                               ; preds = %57
  call void @llvm.lifetime.end.p0(i64 4, ptr %20) #8
  br label %113

62:                                               ; preds = %57
  %63 = load ptr, ptr %10, align 8, !tbaa !52
  %64 = load i32, ptr %20, align 4, !tbaa !9
  %65 = sext i32 %64 to i64
  %66 = getelementptr inbounds i32, ptr %63, i64 %65
  %67 = load i32, ptr %66, align 4, !tbaa !9
  %68 = icmp eq i32 %67, 0
  br i1 %68, label %69, label %79

69:                                               ; preds = %62
  %70 = load ptr, ptr %9, align 8, !tbaa !4
  %71 = load i32, ptr %20, align 4, !tbaa !9
  %72 = sext i32 %71 to i64
  %73 = getelementptr inbounds i32, ptr %70, i64 %72
  %74 = load i32, ptr %73, align 4, !tbaa !9
  %75 = zext i32 %74 to i64
  %76 = shl i64 1, %75
  %77 = load i64, ptr %19, align 8, !tbaa !11
  %78 = sub nsw i64 %77, %76
  store i64 %78, ptr %19, align 8, !tbaa !11
  br label %79

79:                                               ; preds = %69, %62
  %80 = load ptr, ptr %10, align 8, !tbaa !52
  %81 = load i32, ptr %20, align 4, !tbaa !9
  %82 = sext i32 %81 to i64
  %83 = getelementptr inbounds i32, ptr %80, i64 %82
  %84 = load i32, ptr %83, align 4, !tbaa !9
  %85 = icmp eq i32 %84, 1
  br i1 %85, label %86, label %94

86:                                               ; preds = %79
  %87 = load i64, ptr %8, align 8, !tbaa !11
  %88 = load i64, ptr %18, align 8, !tbaa !11
  %89 = load ptr, ptr %9, align 8, !tbaa !4
  %90 = load i32, ptr %20, align 4, !tbaa !9
  %91 = sext i32 %90 to i64
  %92 = getelementptr inbounds i32, ptr %89, i64 %91
  %93 = load i32, ptr %92, align 4, !tbaa !9
  call void @statevec_multiControlledUnitary(ptr noundef byval(%struct.Qureg) align 8 %0, i64 noundef %87, i64 noundef %88, i32 noundef %93, ptr noundef byval(%struct.ComplexMatrix2) align 8 %17)
  br label %94

94:                                               ; preds = %86, %79
  %95 = load ptr, ptr %10, align 8, !tbaa !52
  %96 = load i32, ptr %20, align 4, !tbaa !9
  %97 = sext i32 %96 to i64
  %98 = getelementptr inbounds i32, ptr %95, i64 %97
  %99 = load i32, ptr %98, align 4, !tbaa !9
  %100 = icmp eq i32 %99, 2
  br i1 %100, label %101, label %109

101:                                              ; preds = %94
  %102 = load i64, ptr %8, align 8, !tbaa !11
  %103 = load i64, ptr %18, align 8, !tbaa !11
  %104 = load ptr, ptr %9, align 8, !tbaa !4
  %105 = load i32, ptr %20, align 4, !tbaa !9
  %106 = sext i32 %105 to i64
  %107 = getelementptr inbounds i32, ptr %104, i64 %106
  %108 = load i32, ptr %107, align 4, !tbaa !9
  call void @statevec_multiControlledUnitary(ptr noundef byval(%struct.Qureg) align 8 %0, i64 noundef %102, i64 noundef %103, i32 noundef %108, ptr noundef byval(%struct.ComplexMatrix2) align 8 %16)
  br label %109

109:                                              ; preds = %101, %94
  br label %110

110:                                              ; preds = %109
  %111 = load i32, ptr %20, align 4, !tbaa !9
  %112 = add nsw i32 %111, 1
  store i32 %112, ptr %20, align 4, !tbaa !9
  br label %57

113:                                              ; preds = %61
  %114 = load i64, ptr %19, align 8, !tbaa !11
  %115 = icmp ne i64 %114, 0
  br i1 %115, label %116, label %128

116:                                              ; preds = %113
  %117 = load i64, ptr %8, align 8, !tbaa !11
  %118 = load i64, ptr %19, align 8, !tbaa !11
  %119 = load i32, ptr %13, align 4, !tbaa !9
  %120 = icmp ne i32 %119, 0
  br i1 %120, label %121, label %124

121:                                              ; preds = %116
  %122 = load double, ptr %12, align 8, !tbaa !18
  %123 = fneg double %122
  br label %126

124:                                              ; preds = %116
  %125 = load double, ptr %12, align 8, !tbaa !18
  br label %126

126:                                              ; preds = %124, %121
  %127 = phi double [ %123, %121 ], [ %125, %124 ]
  call void @statevec_multiControlledMultiRotateZ(ptr noundef byval(%struct.Qureg) align 8 %0, i64 noundef %117, i64 noundef %118, double noundef %127)
  br label %128

128:                                              ; preds = %126, %113
  %129 = getelementptr inbounds nuw %struct.ComplexMatrix2, ptr %16, i32 0, i32 1
  %130 = getelementptr inbounds [2 x [2 x double]], ptr %129, i64 0, i64 0
  %131 = getelementptr inbounds [2 x double], ptr %130, i64 0, i64 1
  %132 = load double, ptr %131, align 8, !tbaa !18
  %133 = fmul double %132, -1.000000e+00
  store double %133, ptr %131, align 8, !tbaa !18
  %134 = getelementptr inbounds nuw %struct.ComplexMatrix2, ptr %16, i32 0, i32 1
  %135 = getelementptr inbounds [2 x [2 x double]], ptr %134, i64 0, i64 1
  %136 = getelementptr inbounds [2 x double], ptr %135, i64 0, i64 0
  %137 = load double, ptr %136, align 8, !tbaa !18
  %138 = fmul double %137, -1.000000e+00
  store double %138, ptr %136, align 8, !tbaa !18
  %139 = getelementptr inbounds nuw %struct.ComplexMatrix2, ptr %17, i32 0, i32 0
  %140 = getelementptr inbounds [2 x [2 x double]], ptr %139, i64 0, i64 0
  %141 = getelementptr inbounds [2 x double], ptr %140, i64 0, i64 1
  %142 = load double, ptr %141, align 8, !tbaa !18
  %143 = fmul double %142, -1.000000e+00
  store double %143, ptr %141, align 8, !tbaa !18
  %144 = getelementptr inbounds nuw %struct.ComplexMatrix2, ptr %17, i32 0, i32 0
  %145 = getelementptr inbounds [2 x [2 x double]], ptr %144, i64 0, i64 1
  %146 = getelementptr inbounds [2 x double], ptr %145, i64 0, i64 0
  %147 = load double, ptr %146, align 8, !tbaa !18
  %148 = fmul double %147, -1.000000e+00
  store double %148, ptr %146, align 8, !tbaa !18
  call void @llvm.lifetime.start.p0(i64 4, ptr %21) #8
  store i32 0, ptr %21, align 4, !tbaa !9
  br label %149

149:                                              ; preds = %185, %128
  %150 = load i32, ptr %21, align 4, !tbaa !9
  %151 = load i32, ptr %11, align 4, !tbaa !9
  %152 = icmp slt i32 %150, %151
  br i1 %152, label %154, label %153

153:                                              ; preds = %149
  call void @llvm.lifetime.end.p0(i64 4, ptr %21) #8
  br label %188

154:                                              ; preds = %149
  %155 = load ptr, ptr %10, align 8, !tbaa !52
  %156 = load i32, ptr %21, align 4, !tbaa !9
  %157 = sext i32 %156 to i64
  %158 = getelementptr inbounds i32, ptr %155, i64 %157
  %159 = load i32, ptr %158, align 4, !tbaa !9
  %160 = icmp eq i32 %159, 1
  br i1 %160, label %161, label %169

161:                                              ; preds = %154
  %162 = load i64, ptr %8, align 8, !tbaa !11
  %163 = load i64, ptr %18, align 8, !tbaa !11
  %164 = load ptr, ptr %9, align 8, !tbaa !4
  %165 = load i32, ptr %21, align 4, !tbaa !9
  %166 = sext i32 %165 to i64
  %167 = getelementptr inbounds i32, ptr %164, i64 %166
  %168 = load i32, ptr %167, align 4, !tbaa !9
  call void @statevec_multiControlledUnitary(ptr noundef byval(%struct.Qureg) align 8 %0, i64 noundef %162, i64 noundef %163, i32 noundef %168, ptr noundef byval(%struct.ComplexMatrix2) align 8 %17)
  br label %169

169:                                              ; preds = %161, %154
  %170 = load ptr, ptr %10, align 8, !tbaa !52
  %171 = load i32, ptr %21, align 4, !tbaa !9
  %172 = sext i32 %171 to i64
  %173 = getelementptr inbounds i32, ptr %170, i64 %172
  %174 = load i32, ptr %173, align 4, !tbaa !9
  %175 = icmp eq i32 %174, 2
  br i1 %175, label %176, label %184

176:                                              ; preds = %169
  %177 = load i64, ptr %8, align 8, !tbaa !11
  %178 = load i64, ptr %18, align 8, !tbaa !11
  %179 = load ptr, ptr %9, align 8, !tbaa !4
  %180 = load i32, ptr %21, align 4, !tbaa !9
  %181 = sext i32 %180 to i64
  %182 = getelementptr inbounds i32, ptr %179, i64 %181
  %183 = load i32, ptr %182, align 4, !tbaa !9
  call void @statevec_multiControlledUnitary(ptr noundef byval(%struct.Qureg) align 8 %0, i64 noundef %177, i64 noundef %178, i32 noundef %183, ptr noundef byval(%struct.ComplexMatrix2) align 8 %16)
  br label %184

184:                                              ; preds = %176, %169
  br label %185

185:                                              ; preds = %184
  %186 = load i32, ptr %21, align 4, !tbaa !9
  %187 = add nsw i32 %186, 1
  store i32 %187, ptr %21, align 4, !tbaa !9
  br label %149

188:                                              ; preds = %153
  call void @llvm.lifetime.end.p0(i64 8, ptr %19) #8
  call void @llvm.lifetime.end.p0(i64 8, ptr %18) #8
  call void @llvm.lifetime.end.p0(i64 64, ptr %17) #8
  call void @llvm.lifetime.end.p0(i64 64, ptr %16) #8
  call void @llvm.lifetime.end.p0(i64 8, ptr %15) #8
  call void @llvm.lifetime.end.p0(i64 8, ptr %14) #8
  ret void
}