; Function Attrs: nounwind uwtable
define void @statevec_multiControlledMultiRotatePauli(ptr noundef readonly byval(%struct.Qureg) align 8 captures(none) %0, i64 noundef %1, ptr noundef readonly captures(none) %2, ptr noundef readonly captures(none) %3, i32 noundef %4, double noundef %5, i32 noundef %6) local_unnamed_addr #11 {
  %8 = alloca %struct.ComplexMatrix2, align 8
  %9 = alloca %struct.ComplexMatrix2, align 8
  %.not = icmp eq i32 %6, 0
  %10 = select i1 %.not, i32 -1, i32 1
  %11 = sitofp i32 %10 to double
  call void @llvm.lifetime.start.p0(i64 64, ptr nonnull %8) #22
  store double 0x3FE6A09E667F3BCC, ptr %8, align 8, !tbaa !13
  %12 = getelementptr inbounds nuw i8, ptr %8, i64 8
  %13 = getelementptr inbounds nuw i8, ptr %8, i64 24
  call void @llvm.memset.p0.i64(ptr noundef nonnull align 8 dereferenceable(16) %12, i8 0, i64 16, i1 false)
  store double 0x3FE6A09E667F3BCC, ptr %13, align 8, !tbaa !13
  %14 = getelementptr inbounds nuw i8, ptr %8, i64 32
  store double 0.000000e+00, ptr %14, align 8, !tbaa !13
  %15 = getelementptr inbounds nuw i8, ptr %8, i64 40
  %16 = fmul double %11, 0x3FE6A09E667F3BCC
  store double %16, ptr %15, align 8, !tbaa !13
  %17 = getelementptr inbounds nuw i8, ptr %8, i64 48
  store double %16, ptr %17, align 8, !tbaa !13
  %18 = getelementptr inbounds nuw i8, ptr %8, i64 56
  store double 0.000000e+00, ptr %18, align 8, !tbaa !13
  call void @llvm.lifetime.start.p0(i64 64, ptr nonnull %9) #22
  store double 0x3FE6A09E667F3BCC, ptr %9, align 8, !tbaa !13
  %19 = getelementptr inbounds nuw i8, ptr %9, i64 8
  store double 0x3FE6A09E667F3BCC, ptr %19, align 8, !tbaa !13
  %20 = getelementptr inbounds nuw i8, ptr %9, i64 16
  store double 0xBFE6A09E667F3BCC, ptr %20, align 8, !tbaa !13
  %21 = getelementptr inbounds nuw i8, ptr %9, i64 24
  store double 0x3FE6A09E667F3BCC, ptr %21, align 8, !tbaa !13
  %22 = getelementptr inbounds nuw i8, ptr %9, i64 32
  %23 = icmp sgt i32 %4, 0
  call void @llvm.memset.p0.i64(ptr noundef nonnull align 8 dereferenceable(32) %22, i8 0, i64 32, i1 false)
  br i1 %23, label %.lr.ph.preheader.i, label %._crit_edge65

.lr.ph.preheader.i:                               ; preds = %7
  %wide.trip.count.i = zext nneg i32 %4 to i64
  br label %.lr.ph.i

.lr.ph.i:                                         ; preds = %.lr.ph.i, %.lr.ph.preheader.i
  %indvars.iv.i = phi i64 [ 0, %.lr.ph.preheader.i ], [ %indvars.iv.next.i, %.lr.ph.i ]
  %.067.i = phi i64 [ 0, %.lr.ph.preheader.i ], [ %28, %.lr.ph.i ]
  %24 = getelementptr inbounds nuw i32, ptr %2, i64 %indvars.iv.i
  %25 = load i32, ptr %24, align 4, !tbaa !4
  %26 = zext nneg i32 %25 to i64
  %27 = shl nuw i64 1, %26
  %28 = or i64 %27, %.067.i
  %indvars.iv.next.i = add nuw nsw i64 %indvars.iv.i, 1
  %exitcond.not.i = icmp eq i64 %indvars.iv.next.i, %wide.trip.count.i
  br i1 %exitcond.not.i, label %.lr.ph.preheader, label %.lr.ph.i

.lr.ph.preheader:                                 ; preds = %.lr.ph.i
  %wide.trip.count = zext nneg i32 %4 to i64
  br label %.lr.ph

._crit_edge:                                      ; preds = %43
  %.not56 = icmp eq i64 %.15878, 0
  br i1 %.not56, label %.lr.ph64.preheader, label %44

.lr.ph:                                           ; preds = %.lr.ph.preheader, %43
  %indvars.iv = phi i64 [ 0, %.lr.ph.preheader ], [ %indvars.iv.next, %43 ]
  %.05460 = phi i64 [ %28, %.lr.ph.preheader ], [ %.15878, %43 ]
  %29 = getelementptr inbounds nuw i32, ptr %3, i64 %indvars.iv
  %30 = load i32, ptr %29, align 4, !tbaa !4
  switch i32 %30, label %thread-pre-split [
    i32 0, label %thread-pre-split.thread
    i32 1, label %35
  ]

thread-pre-split.thread:                          ; preds = %.lr.ph
  %31 = getelementptr inbounds nuw i32, ptr %2, i64 %indvars.iv
  %32 = load i32, ptr %31, align 4, !tbaa !4
  %33 = zext nneg i32 %32 to i64
  %.neg = shl nsw i64 -1, %33
  %34 = add i64 %.neg, %.05460
  br label %43

35:                                               ; preds = %.lr.ph
  %36 = getelementptr inbounds nuw i32, ptr %2, i64 %indvars.iv
  %37 = load i32, ptr %36, align 4, !tbaa !4
  tail call void @statevec_multiControlledUnitary(ptr noundef nonnull byval(%struct.Qureg) align 8 %0, i64 noundef %1, i64 noundef 0, i32 noundef %37, ptr noundef nonnull byval(%struct.ComplexMatrix2) align 8 %9) #22
  %.pr.pre = load i32, ptr %29, align 4, !tbaa !4
  br label %thread-pre-split

thread-pre-split:                                 ; preds = %35, %.lr.ph
  %38 = phi i32 [ %30, %.lr.ph ], [ %.pr.pre, %35 ]
  %39 = icmp eq i32 %38, 2
  br i1 %39, label %40, label %43

40:                                               ; preds = %thread-pre-split
  %41 = getelementptr inbounds nuw i32, ptr %2, i64 %indvars.iv
  %42 = load i32, ptr %41, align 4, !tbaa !4
  tail call void @statevec_multiControlledUnitary(ptr noundef nonnull byval(%struct.Qureg) align 8 %0, i64 noundef %1, i64 noundef 0, i32 noundef %42, ptr noundef nonnull byval(%struct.ComplexMatrix2) align 8 %8) #22
  br label %43

43:                                               ; preds = %thread-pre-split.thread, %thread-pre-split, %40
  %.15878 = phi i64 [ %34, %thread-pre-split.thread ], [ %.05460, %thread-pre-split ], [ %.05460, %40 ]
  %indvars.iv.next = add nuw nsw i64 %indvars.iv, 1
  %exitcond.not = icmp eq i64 %indvars.iv.next, %wide.trip.count
  br i1 %exitcond.not, label %._crit_edge, label %.lr.ph

44:                                               ; preds = %._crit_edge
  %45 = fneg double %5
  %46 = select i1 %.not, double %5, double %45
  tail call void @statevec_multiControlledMultiRotateZ(ptr noundef nonnull byval(%struct.Qureg) align 8 %0, i64 noundef %1, i64 noundef %.15878, double noundef %46) #22
  br label %.lr.ph64.preheader

.lr.ph64.preheader:                               ; preds = %44, %._crit_edge
  %47 = fneg double %16
  store double %47, ptr %15, align 8, !tbaa !13
  store double %47, ptr %17, align 8, !tbaa !13
  store double 0xBFE6A09E667F3BCC, ptr %19, align 8, !tbaa !13
  store double 0x3FE6A09E667F3BCC, ptr %20, align 8, !tbaa !13
  %wide.trip.count70 = zext nneg i32 %4 to i64
  br label %.lr.ph64

._crit_edge65:                                    ; preds = %60, %7
  call void @llvm.lifetime.end.p0(i64 64, ptr nonnull %9) #22
  call void @llvm.lifetime.end.p0(i64 64, ptr nonnull %8) #22
  ret void

.lr.ph64:                                         ; preds = %.lr.ph64.preheader, %60
  %indvars.iv67 = phi i64 [ 0, %.lr.ph64.preheader ], [ %indvars.iv.next68, %60 ]
  %48 = getelementptr inbounds nuw i32, ptr %3, i64 %indvars.iv67
  %49 = load i32, ptr %48, align 4, !tbaa !4
  %50 = icmp eq i32 %49, 1
  br i1 %50, label %51, label %54

51:                                               ; preds = %.lr.ph64
  %52 = getelementptr inbounds nuw i32, ptr %2, i64 %indvars.iv67
  %53 = load i32, ptr %52, align 4, !tbaa !4
  tail call void @statevec_multiControlledUnitary(ptr noundef nonnull byval(%struct.Qureg) align 8 %0, i64 noundef %1, i64 noundef 0, i32 noundef %53, ptr noundef nonnull byval(%struct.ComplexMatrix2) align 8 %9) #22
  %.pr59 = load i32, ptr %48, align 4, !tbaa !4
  br label %54

54:                                               ; preds = %51, %.lr.ph64
  %55 = phi i32 [ %.pr59, %51 ], [ %49, %.lr.ph64 ]
  %56 = icmp eq i32 %55, 2
  br i1 %56, label %57, label %60

57:                                               ; preds = %54
  %58 = getelementptr inbounds nuw i32, ptr %2, i64 %indvars.iv67
  %59 = load i32, ptr %58, align 4, !tbaa !4
  tail call void @statevec_multiControlledUnitary(ptr noundef nonnull byval(%struct.Qureg) align 8 %0, i64 noundef %1, i64 noundef 0, i32 noundef %59, ptr noundef nonnull byval(%struct.ComplexMatrix2) align 8 %8) #22
  br label %60

60:                                               ; preds = %54, %57
  %indvars.iv.next68 = add nuw nsw i64 %indvars.iv67, 1
  %exitcond71.not = icmp eq i64 %indvars.iv.next68, %wide.trip.count70
  br i1 %exitcond71.not, label %._crit_edge65, label %.lr.ph64
}